
attiny_proto.elf:     file format elf32-avr

Sections:
Idx Name          Size      VMA       LMA       File off  Algn
  0 .text         000009cc  00000000  00000000  000000b4  2**1
                  CONTENTS, ALLOC, LOAD, READONLY, CODE
  1 .data         000000b8  00800060  000009cc  00000a80  2**0
                  CONTENTS, ALLOC, LOAD, DATA
  2 .bss          0000002f  00800118  00800118  00000b38  2**0
                  ALLOC
  3 .eeprom       00000006  00810000  00810000  00000b38  2**0
                  CONTENTS, ALLOC, LOAD, READONLY, DATA

Disassembly of section .text:

00000000 <__vectors>:
   0:	0e c0       	rjmp	.+28     	; 0x1e <__ctors_end>
   2:	28 c0       	rjmp	.+80     	; 0x54 <__bad_interrupt>
   4:	27 c0       	rjmp	.+78     	; 0x54 <__bad_interrupt>
   6:	26 c0       	rjmp	.+76     	; 0x54 <__bad_interrupt>
   8:	25 c0       	rjmp	.+74     	; 0x54 <__bad_interrupt>
   a:	24 c0       	rjmp	.+72     	; 0x54 <__bad_interrupt>
   c:	23 c0       	rjmp	.+70     	; 0x54 <__bad_interrupt>
   e:	22 c0       	rjmp	.+68     	; 0x54 <__bad_interrupt>
  10:	21 c0       	rjmp	.+66     	; 0x54 <__bad_interrupt>
  12:	20 c0       	rjmp	.+64     	; 0x54 <__bad_interrupt>
  14:	3a c0       	rjmp	.+116    	; 0x8a <__vector_10>
  16:	1e c0       	rjmp	.+60     	; 0x54 <__bad_interrupt>
  18:	a9 c1       	rjmp	.+850    	; 0x36c <__vector_12>
  1a:	1c c0       	rjmp	.+56     	; 0x54 <__bad_interrupt>
  1c:	b8 c3       	rjmp	.+1904   	; 0x78e <__vector_14>

0000001e <__ctors_end>:
  1e:	11 24       	eor	r1, r1
  20:	1f be       	out	0x3f, r1	; 63
  22:	cf e5       	ldi	r28, 0x5F	; 95
  24:	d2 e0       	ldi	r29, 0x02	; 2
  26:	de bf       	out	0x3e, r29	; 62
  28:	cd bf       	out	0x3d, r28	; 61

0000002a <__do_copy_data>:
  2a:	11 e0       	ldi	r17, 0x01	; 1
  2c:	a0 e6       	ldi	r26, 0x60	; 96
  2e:	b0 e0       	ldi	r27, 0x00	; 0
  30:	ec ec       	ldi	r30, 0xCC	; 204
  32:	f9 e0       	ldi	r31, 0x09	; 9
  34:	02 c0       	rjmp	.+4      	; 0x3a <.do_copy_data_start>

00000036 <.do_copy_data_loop>:
  36:	05 90       	lpm	r0, Z+
  38:	0d 92       	st	X+, r0

0000003a <.do_copy_data_start>:
  3a:	a8 31       	cpi	r26, 0x18	; 24
  3c:	b1 07       	cpc	r27, r17
  3e:	d9 f7       	brne	.-10     	; 0x36 <.do_copy_data_loop>

00000040 <__do_clear_bss>:
  40:	11 e0       	ldi	r17, 0x01	; 1
  42:	a8 e1       	ldi	r26, 0x18	; 24
  44:	b1 e0       	ldi	r27, 0x01	; 1
  46:	01 c0       	rjmp	.+2      	; 0x4a <.do_clear_bss_start>

00000048 <.do_clear_bss_loop>:
  48:	1d 92       	st	X+, r1

0000004a <.do_clear_bss_start>:
  4a:	a7 34       	cpi	r26, 0x47	; 71
  4c:	b1 07       	cpc	r27, r17
  4e:	e1 f7       	brne	.-8      	; 0x48 <.do_clear_bss_loop>
  50:	9f d1       	rcall	.+830    	; 0x390 <main>
  52:	ba c4       	rjmp	.+2420   	; 0x9c8 <_exit>

00000054 <__bad_interrupt>:
  54:	d5 cf       	rjmp	.-86     	; 0x0 <__vectors>

00000056 <readVcc>:
  56:	86 b1       	in	r24, 0x06	; 6
  58:	87 68       	ori	r24, 0x87	; 135
  5a:	86 b9       	out	0x06, r24	; 6
  5c:	8c e0       	ldi	r24, 0x0C	; 12
  5e:	87 b9       	out	0x07, r24	; 7
  60:	36 9a       	sbi	0x06, 6	; 6
  62:	36 99       	sbic	0x06, 6	; 6
  64:	fe cf       	rjmp	.-4      	; 0x62 <readVcc+0xc>
  66:	84 b1       	in	r24, 0x04	; 4
  68:	90 e0       	ldi	r25, 0x00	; 0
  6a:	65 b1       	in	r22, 0x05	; 5
  6c:	36 2f       	mov	r19, r22
  6e:	20 e0       	ldi	r18, 0x00	; 0
  70:	28 2b       	or	r18, r24
  72:	39 2b       	or	r19, r25
  74:	40 e0       	ldi	r20, 0x00	; 0
  76:	50 e0       	ldi	r21, 0x00	; 0
  78:	60 e0       	ldi	r22, 0x00	; 0
  7a:	70 e3       	ldi	r23, 0x30	; 48
  7c:	81 e1       	ldi	r24, 0x11	; 17
  7e:	90 e0       	ldi	r25, 0x00	; 0
  80:	ea d3       	rcall	.+2004   	; 0x856 <__divmodsi4>
  82:	93 2f       	mov	r25, r19
  84:	37 98       	cbi	0x06, 7	; 6
  86:	82 2f       	mov	r24, r18
  88:	08 95       	ret

0000008a <__vector_10>:
  8a:	1f 92       	push	r1
  8c:	0f 92       	push	r0
  8e:	0f b6       	in	r0, 0x3f	; 63
  90:	0f 92       	push	r0
  92:	11 24       	eor	r1, r1
  94:	8f 93       	push	r24
  96:	9f 93       	push	r25
  98:	88 b3       	in	r24, 0x18	; 24
  9a:	90 e1       	ldi	r25, 0x10	; 16
  9c:	89 27       	eor	r24, r25
  9e:	88 bb       	out	0x18, r24	; 24
  a0:	9f 91       	pop	r25
  a2:	8f 91       	pop	r24
  a4:	0f 90       	pop	r0
  a6:	0f be       	out	0x3f, r0	; 63
  a8:	0f 90       	pop	r0
  aa:	1f 90       	pop	r1
  ac:	18 95       	reti

000000ae <calibration>:
  ae:	8c e6       	ldi	r24, 0x6C	; 108
  b0:	81 bf       	out	0x31, r24	; 49
  b2:	80 e1       	ldi	r24, 0x10	; 16
  b4:	87 bb       	out	0x17, r24	; 23
  b6:	12 be       	out	0x32, r1	; 50
  b8:	92 e0       	ldi	r25, 0x02	; 2
  ba:	9a bd       	out	0x2a, r25	; 42
  bc:	86 b5       	in	r24, 0x26	; 38
  be:	83 30       	cpi	r24, 0x03	; 3
  c0:	19 f4       	brne	.+6      	; 0xc8 <calibration+0x1a>
  c2:	81 e0       	ldi	r24, 0x01	; 1
  c4:	83 bf       	out	0x33, r24	; 51
  c6:	01 c0       	rjmp	.+2      	; 0xca <calibration+0x1c>
  c8:	93 bf       	out	0x33, r25	; 51
  ca:	8c b5       	in	r24, 0x2c	; 44
  cc:	81 60       	ori	r24, 0x01	; 1
  ce:	8c bd       	out	0x2c, r24	; 44
  d0:	81 e3       	ldi	r24, 0x31	; 49
  d2:	89 bd       	out	0x29, r24	; 41
  d4:	80 e1       	ldi	r24, 0x10	; 16
  d6:	88 bf       	out	0x38, r24	; 56
  d8:	89 b7       	in	r24, 0x39	; 57
  da:	80 61       	ori	r24, 0x10	; 16
  dc:	89 bf       	out	0x39, r24	; 57
  de:	78 94       	sei
  e0:	ff cf       	rjmp	.-2      	; 0xe0 <calibration+0x32>

000000e2 <read_from_eeprom>:
  e2:	e8 2f       	mov	r30, r24
  e4:	f0 e0       	ldi	r31, 0x00	; 0
  e6:	ee 0f       	add	r30, r30
  e8:	ff 1f       	adc	r31, r31
  ea:	ee 0f       	add	r30, r30
  ec:	ff 1f       	adc	r31, r31
  ee:	e6 5e       	subi	r30, 0xE6	; 230
  f0:	fe 4f       	sbci	r31, 0xFE	; 254
  f2:	60 81       	ld	r22, Z
  f4:	71 81       	ldd	r23, Z+1	; 0x01
  f6:	82 81       	ldd	r24, Z+2	; 0x02
  f8:	93 81       	ldd	r25, Z+3	; 0x03
  fa:	08 95       	ret

000000fc <write_to_eeprom>:
  fc:	cf 93       	push	r28
  fe:	df 93       	push	r29
 100:	ec 01       	movw	r28, r24
 102:	80 91 26 01 	lds	r24, 0x0126
 106:	90 91 27 01 	lds	r25, 0x0127
 10a:	01 96       	adiw	r24, 0x01	; 1
 10c:	90 93 27 01 	sts	0x0127, r25
 110:	80 93 26 01 	sts	0x0126, r24
 114:	8a 97       	sbiw	r24, 0x2a	; 42
 116:	20 f0       	brcs	.+8      	; 0x120 <write_to_eeprom+0x24>
 118:	10 92 27 01 	sts	0x0127, r1
 11c:	10 92 26 01 	sts	0x0126, r1
 120:	80 91 22 01 	lds	r24, 0x0122
 124:	90 91 23 01 	lds	r25, 0x0123
 128:	a0 91 24 01 	lds	r26, 0x0124
 12c:	b0 91 25 01 	lds	r27, 0x0125
 130:	01 96       	adiw	r24, 0x01	; 1
 132:	a1 1d       	adc	r26, r1
 134:	b1 1d       	adc	r27, r1
 136:	80 93 22 01 	sts	0x0122, r24
 13a:	90 93 23 01 	sts	0x0123, r25
 13e:	a0 93 24 01 	sts	0x0124, r26
 142:	b0 93 25 01 	sts	0x0125, r27
 146:	80 93 28 01 	sts	0x0128, r24
 14a:	90 93 29 01 	sts	0x0129, r25
 14e:	a0 93 2a 01 	sts	0x012A, r26
 152:	b0 93 2b 01 	sts	0x012B, r27
 156:	88 81       	ld	r24, Y
 158:	99 81       	ldd	r25, Y+1	; 0x01
 15a:	aa 81       	ldd	r26, Y+2	; 0x02
 15c:	bb 81       	ldd	r27, Y+3	; 0x03
 15e:	80 93 2c 01 	sts	0x012C, r24
 162:	90 93 2d 01 	sts	0x012D, r25
 166:	a0 93 2e 01 	sts	0x012E, r26
 16a:	b0 93 2f 01 	sts	0x012F, r27
 16e:	8c 81       	ldd	r24, Y+4	; 0x04
 170:	9d 81       	ldd	r25, Y+5	; 0x05
 172:	ae 81       	ldd	r26, Y+6	; 0x06
 174:	bf 81       	ldd	r27, Y+7	; 0x07
 176:	80 93 30 01 	sts	0x0130, r24
 17a:	90 93 31 01 	sts	0x0131, r25
 17e:	a0 93 32 01 	sts	0x0132, r26
 182:	b0 93 33 01 	sts	0x0133, r27
 186:	80 91 26 01 	lds	r24, 0x0126
 18a:	90 91 27 01 	lds	r25, 0x0127
 18e:	6c e0       	ldi	r22, 0x0C	; 12
 190:	70 e0       	ldi	r23, 0x00	; 0
 192:	4f d3       	rcall	.+1694   	; 0x832 <__mulhi3>
 194:	bc 01       	movw	r22, r24
 196:	6a 5f       	subi	r22, 0xFA	; 250
 198:	7f 4f       	sbci	r23, 0xFF	; 255
 19a:	88 e2       	ldi	r24, 0x28	; 40
 19c:	91 e0       	ldi	r25, 0x01	; 1
 19e:	4c e0       	ldi	r20, 0x0C	; 12
 1a0:	50 e0       	ldi	r21, 0x00	; 0
 1a2:	d7 d3       	rcall	.+1966   	; 0x952 <__eewr_block_tn85>
 1a4:	88 81       	ld	r24, Y
 1a6:	99 81       	ldd	r25, Y+1	; 0x01
 1a8:	aa 81       	ldd	r26, Y+2	; 0x02
 1aa:	bb 81       	ldd	r27, Y+3	; 0x03
 1ac:	80 93 1a 01 	sts	0x011A, r24
 1b0:	90 93 1b 01 	sts	0x011B, r25
 1b4:	a0 93 1c 01 	sts	0x011C, r26
 1b8:	b0 93 1d 01 	sts	0x011D, r27
 1bc:	8c 81       	ldd	r24, Y+4	; 0x04
 1be:	9d 81       	ldd	r25, Y+5	; 0x05
 1c0:	ae 81       	ldd	r26, Y+6	; 0x06
 1c2:	bf 81       	ldd	r27, Y+7	; 0x07
 1c4:	80 93 1e 01 	sts	0x011E, r24
 1c8:	90 93 1f 01 	sts	0x011F, r25
 1cc:	a0 93 20 01 	sts	0x0120, r26
 1d0:	b0 93 21 01 	sts	0x0121, r27
 1d4:	df 91       	pop	r29
 1d6:	cf 91       	pop	r28
 1d8:	08 95       	ret

000001da <init_eeprom_control>:
 1da:	0f 93       	push	r16
 1dc:	1f 93       	push	r17
 1de:	cf 93       	push	r28
 1e0:	df 93       	push	r29
 1e2:	10 92 22 01 	sts	0x0122, r1
 1e6:	10 92 23 01 	sts	0x0123, r1
 1ea:	10 92 24 01 	sts	0x0124, r1
 1ee:	10 92 25 01 	sts	0x0125, r1
 1f2:	10 92 27 01 	sts	0x0127, r1
 1f6:	10 92 26 01 	sts	0x0126, r1
 1fa:	10 92 1a 01 	sts	0x011A, r1
 1fe:	10 92 1b 01 	sts	0x011B, r1
 202:	10 92 1c 01 	sts	0x011C, r1
 206:	10 92 1d 01 	sts	0x011D, r1
 20a:	10 92 1e 01 	sts	0x011E, r1
 20e:	10 92 1f 01 	sts	0x011F, r1
 212:	10 92 20 01 	sts	0x0120, r1
 216:	10 92 21 01 	sts	0x0121, r1
 21a:	c0 e0       	ldi	r28, 0x00	; 0
 21c:	d0 e0       	ldi	r29, 0x00	; 0
 21e:	06 e0       	ldi	r16, 0x06	; 6
 220:	10 e0       	ldi	r17, 0x00	; 0
 222:	88 e2       	ldi	r24, 0x28	; 40
 224:	91 e0       	ldi	r25, 0x01	; 1
 226:	b8 01       	movw	r22, r16
 228:	4c e0       	ldi	r20, 0x0C	; 12
 22a:	50 e0       	ldi	r21, 0x00	; 0
 22c:	70 d3       	rcall	.+1760   	; 0x90e <__eerd_block_tn85>
 22e:	20 91 28 01 	lds	r18, 0x0128
 232:	30 91 29 01 	lds	r19, 0x0129
 236:	40 91 2a 01 	lds	r20, 0x012A
 23a:	50 91 2b 01 	lds	r21, 0x012B
 23e:	80 91 22 01 	lds	r24, 0x0122
 242:	90 91 23 01 	lds	r25, 0x0123
 246:	a0 91 24 01 	lds	r26, 0x0124
 24a:	b0 91 25 01 	lds	r27, 0x0125
 24e:	28 17       	cp	r18, r24
 250:	39 07       	cpc	r19, r25
 252:	4a 07       	cpc	r20, r26
 254:	5b 07       	cpc	r21, r27
 256:	a0 f1       	brcs	.+104    	; 0x2c0 <__stack+0x61>
 258:	2f 3f       	cpi	r18, 0xFF	; 255
 25a:	8f ef       	ldi	r24, 0xFF	; 255
 25c:	38 07       	cpc	r19, r24
 25e:	8f ef       	ldi	r24, 0xFF	; 255
 260:	48 07       	cpc	r20, r24
 262:	8f ef       	ldi	r24, 0xFF	; 255
 264:	58 07       	cpc	r21, r24
 266:	61 f1       	breq	.+88     	; 0x2c0 <__stack+0x61>
 268:	d0 93 27 01 	sts	0x0127, r29
 26c:	c0 93 26 01 	sts	0x0126, r28
 270:	20 93 22 01 	sts	0x0122, r18
 274:	30 93 23 01 	sts	0x0123, r19
 278:	40 93 24 01 	sts	0x0124, r20
 27c:	50 93 25 01 	sts	0x0125, r21
 280:	80 91 2c 01 	lds	r24, 0x012C
 284:	90 91 2d 01 	lds	r25, 0x012D
 288:	a0 91 2e 01 	lds	r26, 0x012E
 28c:	b0 91 2f 01 	lds	r27, 0x012F
 290:	80 93 1a 01 	sts	0x011A, r24
 294:	90 93 1b 01 	sts	0x011B, r25
 298:	a0 93 1c 01 	sts	0x011C, r26
 29c:	b0 93 1d 01 	sts	0x011D, r27
 2a0:	80 91 30 01 	lds	r24, 0x0130
 2a4:	90 91 31 01 	lds	r25, 0x0131
 2a8:	a0 91 32 01 	lds	r26, 0x0132
 2ac:	b0 91 33 01 	lds	r27, 0x0133
 2b0:	80 93 1e 01 	sts	0x011E, r24
 2b4:	90 93 1f 01 	sts	0x011F, r25
 2b8:	a0 93 20 01 	sts	0x0120, r26
 2bc:	b0 93 21 01 	sts	0x0121, r27
 2c0:	21 96       	adiw	r28, 0x01	; 1
 2c2:	04 5f       	subi	r16, 0xF4	; 244
 2c4:	1f 4f       	sbci	r17, 0xFF	; 255
 2c6:	ca 32       	cpi	r28, 0x2A	; 42
 2c8:	d1 05       	cpc	r29, r1
 2ca:	09 f0       	breq	.+2      	; 0x2ce <__stack+0x6f>
 2cc:	aa cf       	rjmp	.-172    	; 0x222 <init_eeprom_control+0x48>
 2ce:	df 91       	pop	r29
 2d0:	cf 91       	pop	r28
 2d2:	1f 91       	pop	r17
 2d4:	0f 91       	pop	r16
 2d6:	08 95       	ret

000002d8 <read_crc>:
 2d8:	84 e0       	ldi	r24, 0x04	; 4
 2da:	90 e0       	ldi	r25, 0x00	; 0
 2dc:	35 d3       	rcall	.+1642   	; 0x948 <__eerd_word_tn85>
 2de:	08 95       	ret

000002e0 <read_serial_eeprom>:
 2e0:	80 e0       	ldi	r24, 0x00	; 0
 2e2:	90 e0       	ldi	r25, 0x00	; 0
 2e4:	2c d3       	rcall	.+1624   	; 0x93e <__eerd_dword_tn85>
 2e6:	08 95       	ret

000002e8 <dump_eeprom>:
 2e8:	ef 92       	push	r14
 2ea:	ff 92       	push	r15
 2ec:	0f 93       	push	r16
 2ee:	1f 93       	push	r17
 2f0:	df 93       	push	r29
 2f2:	cf 93       	push	r28
 2f4:	00 d0       	rcall	.+0      	; 0x2f6 <dump_eeprom+0xe>
 2f6:	cd b7       	in	r28, 0x3d	; 61
 2f8:	de b7       	in	r29, 0x3e	; 62
 2fa:	1a 82       	std	Y+2, r1	; 0x02
 2fc:	19 82       	std	Y+1, r1	; 0x01
 2fe:	7e 01       	movw	r14, r28
 300:	08 94       	sec
 302:	e1 1c       	adc	r14, r1
 304:	f1 1c       	adc	r15, r1
 306:	07 c0       	rjmp	.+14     	; 0x316 <dump_eeprom+0x2e>
 308:	c7 01       	movw	r24, r14
 30a:	11 d3       	rcall	.+1570   	; 0x92e <__eerd_byte_tn85>
 30c:	fc d1       	rcall	.+1016   	; 0x706 <usi_uart_send_byte>
 30e:	0f 5f       	subi	r16, 0xFF	; 255
 310:	1f 4f       	sbci	r17, 0xFF	; 255
 312:	1a 83       	std	Y+2, r17	; 0x02
 314:	09 83       	std	Y+1, r16	; 0x01
 316:	09 81       	ldd	r16, Y+1	; 0x01
 318:	1a 81       	ldd	r17, Y+2	; 0x02
 31a:	82 e0       	ldi	r24, 0x02	; 2
 31c:	00 30       	cpi	r16, 0x00	; 0
 31e:	18 07       	cpc	r17, r24
 320:	98 f3       	brcs	.-26     	; 0x308 <dump_eeprom+0x20>
 322:	0f 90       	pop	r0
 324:	0f 90       	pop	r0
 326:	cf 91       	pop	r28
 328:	df 91       	pop	r29
 32a:	1f 91       	pop	r17
 32c:	0f 91       	pop	r16
 32e:	ff 90       	pop	r15
 330:	ef 90       	pop	r14
 332:	08 95       	ret

00000334 <clear_eeprom>:
 334:	cf 93       	push	r28
 336:	df 93       	push	r29
 338:	c6 e0       	ldi	r28, 0x06	; 6
 33a:	d0 e0       	ldi	r29, 0x00	; 0
 33c:	ce 01       	movw	r24, r28
 33e:	6f ef       	ldi	r22, 0xFF	; 255
 340:	11 d3       	rcall	.+1570   	; 0x964 <__eewr_byte_tn85>
 342:	21 96       	adiw	r28, 0x01	; 1
 344:	82 e0       	ldi	r24, 0x02	; 2
 346:	c0 30       	cpi	r28, 0x00	; 0
 348:	d8 07       	cpc	r29, r24
 34a:	c1 f7       	brne	.-16     	; 0x33c <clear_eeprom+0x8>
 34c:	df 91       	pop	r29
 34e:	cf 91       	pop	r28
 350:	08 95       	ret

00000352 <ir_gate_detect>:
 352:	c0 9a       	sbi	0x18, 0	; 24
 354:	85 e1       	ldi	r24, 0x15	; 21
 356:	8a 95       	dec	r24
 358:	f1 f7       	brne	.-4      	; 0x356 <ir_gate_detect+0x4>
 35a:	86 b3       	in	r24, 0x16	; 22
 35c:	c0 98       	cbi	0x18, 0	; 24
 35e:	90 e0       	ldi	r25, 0x00	; 0
 360:	96 95       	lsr	r25
 362:	87 95       	ror	r24
 364:	96 95       	lsr	r25
 366:	87 95       	ror	r24
 368:	81 70       	andi	r24, 0x01	; 1
 36a:	08 95       	ret

0000036c <__vector_12>:
 36c:	1f 92       	push	r1
 36e:	0f 92       	push	r0
 370:	0f b6       	in	r0, 0x3f	; 63
 372:	0f 92       	push	r0
 374:	11 24       	eor	r1, r1
 376:	8f 93       	push	r24
 378:	81 e0       	ldi	r24, 0x01	; 1
 37a:	80 93 39 01 	sts	0x0139, r24
 37e:	81 b5       	in	r24, 0x21	; 33
 380:	80 64       	ori	r24, 0x40	; 64
 382:	81 bd       	out	0x21, r24	; 33
 384:	8f 91       	pop	r24
 386:	0f 90       	pop	r0
 388:	0f be       	out	0x3f, r0	; 63
 38a:	0f 90       	pop	r0
 38c:	1f 90       	pop	r1
 38e:	18 95       	reti

00000390 <main>:
 390:	bf 92       	push	r11
 392:	cf 92       	push	r12
 394:	df 92       	push	r13
 396:	ef 92       	push	r14
 398:	ff 92       	push	r15
 39a:	0f 93       	push	r16
 39c:	1f 93       	push	r17
 39e:	cf 93       	push	r28
 3a0:	df 93       	push	r29
 3a2:	8c e6       	ldi	r24, 0x6C	; 108
 3a4:	81 bf       	out	0x31, r24	; 49
 3a6:	87 b3       	in	r24, 0x17	; 23
 3a8:	8b 61       	ori	r24, 0x1B	; 27
 3aa:	87 bb       	out	0x17, r24	; 23
 3ac:	ba 98       	cbi	0x17, 2	; 23
 3ae:	c1 9a       	sbi	0x18, 1	; 24
 3b0:	78 94       	sei
 3b2:	8f ef       	ldi	r24, 0xFF	; 255
 3b4:	9f ef       	ldi	r25, 0xFF	; 255
 3b6:	28 ec       	ldi	r18, 0xC8	; 200
 3b8:	30 e0       	ldi	r19, 0x00	; 0
 3ba:	f9 01       	movw	r30, r18
 3bc:	31 97       	sbiw	r30, 0x01	; 1
 3be:	f1 f7       	brne	.-4      	; 0x3bc <main+0x2c>
 3c0:	01 97       	sbiw	r24, 0x01	; 1
 3c2:	d9 f7       	brne	.-10     	; 0x3ba <main+0x2a>
 3c4:	90 d1       	rcall	.+800    	; 0x6e6 <system_self_test>
 3c6:	81 30       	cpi	r24, 0x01	; 1
 3c8:	51 f0       	breq	.+20     	; 0x3de <main+0x4e>
 3ca:	48 2f       	mov	r20, r24
 3cc:	50 e0       	ldi	r21, 0x00	; 0
 3ce:	60 e0       	ldi	r22, 0x00	; 0
 3d0:	70 e0       	ldi	r23, 0x00	; 0
 3d2:	80 e6       	ldi	r24, 0x60	; 96
 3d4:	90 e0       	ldi	r25, 0x00	; 0
 3d6:	20 e8       	ldi	r18, 0x80	; 128
 3d8:	30 e0       	ldi	r19, 0x00	; 0
 3da:	fb d1       	rcall	.+1014   	; 0x7d2 <usi_uart_send_u32>
 3dc:	03 c0       	rjmp	.+6      	; 0x3e4 <main+0x54>
 3de:	83 e8       	ldi	r24, 0x83	; 131
 3e0:	90 e0       	ldi	r25, 0x00	; 0
 3e2:	c2 d1       	rcall	.+900    	; 0x768 <usi_uart_send>
 3e4:	fa de       	rcall	.-524    	; 0x1da <init_eeprom_control>
 3e6:	7c df       	rcall	.-264    	; 0x2e0 <read_serial_eeprom>
 3e8:	ab 01       	movw	r20, r22
 3ea:	bc 01       	movw	r22, r24
 3ec:	40 93 3a 01 	sts	0x013A, r20
 3f0:	50 93 3b 01 	sts	0x013B, r21
 3f4:	60 93 3c 01 	sts	0x013C, r22
 3f8:	70 93 3d 01 	sts	0x013D, r23
 3fc:	8c e9       	ldi	r24, 0x9C	; 156
 3fe:	90 e0       	ldi	r25, 0x00	; 0
 400:	2c ea       	ldi	r18, 0xAC	; 172
 402:	30 e0       	ldi	r19, 0x00	; 0
 404:	e6 d1       	rcall	.+972    	; 0x7d2 <usi_uart_send_u32>
 406:	80 e0       	ldi	r24, 0x00	; 0
 408:	6c de       	rcall	.-808    	; 0xe2 <read_from_eeprom>
 40a:	ab 01       	movw	r20, r22
 40c:	bc 01       	movw	r22, r24
 40e:	40 93 3a 01 	sts	0x013A, r20
 412:	50 93 3b 01 	sts	0x013B, r21
 416:	60 93 3c 01 	sts	0x013C, r22
 41a:	70 93 3d 01 	sts	0x013D, r23
 41e:	80 eb       	ldi	r24, 0xB0	; 176
 420:	90 e0       	ldi	r25, 0x00	; 0
 422:	2c ea       	ldi	r18, 0xAC	; 172
 424:	30 e0       	ldi	r19, 0x00	; 0
 426:	d5 d1       	rcall	.+938    	; 0x7d2 <usi_uart_send_u32>
 428:	81 e0       	ldi	r24, 0x01	; 1
 42a:	5b de       	rcall	.-842    	; 0xe2 <read_from_eeprom>
 42c:	ab 01       	movw	r20, r22
 42e:	bc 01       	movw	r22, r24
 430:	40 93 3e 01 	sts	0x013E, r20
 434:	50 93 3f 01 	sts	0x013F, r21
 438:	60 93 40 01 	sts	0x0140, r22
 43c:	70 93 41 01 	sts	0x0141, r23
 440:	8c eb       	ldi	r24, 0xBC	; 188
 442:	90 e0       	ldi	r25, 0x00	; 0
 444:	2c ea       	ldi	r18, 0xAC	; 172
 446:	30 e0       	ldi	r19, 0x00	; 0
 448:	c4 d1       	rcall	.+904    	; 0x7d2 <usi_uart_send_u32>
 44a:	10 92 39 01 	sts	0x0139, r1
 44e:	10 92 38 01 	sts	0x0138, r1
 452:	10 92 43 01 	sts	0x0143, r1
 456:	10 92 42 01 	sts	0x0142, r1
 45a:	10 92 37 01 	sts	0x0137, r1
 45e:	10 92 36 01 	sts	0x0136, r1
 462:	10 92 35 01 	sts	0x0135, r1
 466:	10 92 34 01 	sts	0x0134, r1
 46a:	80 91 3e 01 	lds	r24, 0x013E
 46e:	90 91 3f 01 	lds	r25, 0x013F
 472:	a0 91 40 01 	lds	r26, 0x0140
 476:	b0 91 41 01 	lds	r27, 0x0141
 47a:	01 96       	adiw	r24, 0x01	; 1
 47c:	a1 1d       	adc	r26, r1
 47e:	b1 1d       	adc	r27, r1
 480:	80 93 3e 01 	sts	0x013E, r24
 484:	90 93 3f 01 	sts	0x013F, r25
 488:	a0 93 40 01 	sts	0x0140, r26
 48c:	b0 93 41 01 	sts	0x0141, r27
 490:	8a e3       	ldi	r24, 0x3A	; 58
 492:	91 e0       	ldi	r25, 0x01	; 1
 494:	33 de       	rcall	.-922    	; 0xfc <write_to_eeprom>
 496:	30 d1       	rcall	.+608    	; 0x6f8 <timer_start>
 498:	90 ec       	ldi	r25, 0xC0	; 192
 49a:	c9 2e       	mov	r12, r25
 49c:	92 e1       	ldi	r25, 0x12	; 18
 49e:	d9 2e       	mov	r13, r25
 4a0:	bb 24       	eor	r11, r11
 4a2:	b3 94       	inc	r11
 4a4:	88 e1       	ldi	r24, 0x18	; 24
 4a6:	e8 2e       	mov	r14, r24
 4a8:	f1 2c       	mov	r15, r1
 4aa:	00 e1       	ldi	r16, 0x10	; 16
 4ac:	c0 ea       	ldi	r28, 0xA0	; 160
 4ae:	d0 e0       	ldi	r29, 0x00	; 0
 4b0:	10 91 39 01 	lds	r17, 0x0139
 4b4:	11 30       	cpi	r17, 0x01	; 1
 4b6:	e1 f7       	brne	.-8      	; 0x4b0 <main+0x120>
 4b8:	80 91 38 01 	lds	r24, 0x0138
 4bc:	88 23       	and	r24, r24
 4be:	21 f0       	breq	.+8      	; 0x4c8 <main+0x138>
 4c0:	81 30       	cpi	r24, 0x01	; 1
 4c2:	09 f0       	breq	.+2      	; 0x4c6 <main+0x136>
 4c4:	58 c0       	rjmp	.+176    	; 0x576 <main+0x1e6>
 4c6:	36 c0       	rjmp	.+108    	; 0x534 <main+0x1a4>
 4c8:	80 91 36 01 	lds	r24, 0x0136
 4cc:	90 91 37 01 	lds	r25, 0x0137
 4d0:	00 97       	sbiw	r24, 0x00	; 0
 4d2:	51 f5       	brne	.+84     	; 0x528 <main+0x198>
 4d4:	3e df       	rcall	.-388    	; 0x352 <ir_gate_detect>
 4d6:	88 23       	and	r24, r24
 4d8:	09 f4       	brne	.+2      	; 0x4dc <main+0x14c>
 4da:	4d c0       	rjmp	.+154    	; 0x576 <main+0x1e6>
 4dc:	87 ec       	ldi	r24, 0xC7	; 199
 4de:	90 e0       	ldi	r25, 0x00	; 0
 4e0:	43 d1       	rcall	.+646    	; 0x768 <usi_uart_send>
 4e2:	87 ed       	ldi	r24, 0xD7	; 215
 4e4:	90 e0       	ldi	r25, 0x00	; 0
 4e6:	40 d1       	rcall	.+640    	; 0x768 <usi_uart_send>
 4e8:	80 91 3a 01 	lds	r24, 0x013A
 4ec:	90 91 3b 01 	lds	r25, 0x013B
 4f0:	a0 91 3c 01 	lds	r26, 0x013C
 4f4:	b0 91 3d 01 	lds	r27, 0x013D
 4f8:	01 96       	adiw	r24, 0x01	; 1
 4fa:	a1 1d       	adc	r26, r1
 4fc:	b1 1d       	adc	r27, r1
 4fe:	80 93 3a 01 	sts	0x013A, r24
 502:	90 93 3b 01 	sts	0x013B, r25
 506:	a0 93 3c 01 	sts	0x013C, r26
 50a:	b0 93 3d 01 	sts	0x013D, r27
 50e:	8a e3       	ldi	r24, 0x3A	; 58
 510:	91 e0       	ldi	r25, 0x01	; 1
 512:	f4 dd       	rcall	.-1048   	; 0xfc <write_to_eeprom>
 514:	88 b3       	in	r24, 0x18	; 24
 516:	88 61       	ori	r24, 0x18	; 24
 518:	88 bb       	out	0x18, r24	; 24
 51a:	f0 92 43 01 	sts	0x0143, r15
 51e:	e0 92 42 01 	sts	0x0142, r14
 522:	10 93 38 01 	sts	0x0138, r17
 526:	27 c0       	rjmp	.+78     	; 0x576 <main+0x1e6>
 528:	01 97       	sbiw	r24, 0x01	; 1
 52a:	90 93 37 01 	sts	0x0137, r25
 52e:	80 93 36 01 	sts	0x0136, r24
 532:	21 c0       	rjmp	.+66     	; 0x576 <main+0x1e6>
 534:	80 91 42 01 	lds	r24, 0x0142
 538:	90 91 43 01 	lds	r25, 0x0143
 53c:	00 97       	sbiw	r24, 0x00	; 0
 53e:	69 f4       	brne	.+26     	; 0x55a <main+0x1ca>
 540:	80 ef       	ldi	r24, 0xF0	; 240
 542:	90 e0       	ldi	r25, 0x00	; 0
 544:	11 d1       	rcall	.+546    	; 0x768 <usi_uart_send>
 546:	88 b3       	in	r24, 0x18	; 24
 548:	87 7e       	andi	r24, 0xE7	; 231
 54a:	88 bb       	out	0x18, r24	; 24
 54c:	d0 93 37 01 	sts	0x0137, r29
 550:	c0 93 36 01 	sts	0x0136, r28
 554:	10 92 38 01 	sts	0x0138, r1
 558:	0e c0       	rjmp	.+28     	; 0x576 <main+0x1e6>
 55a:	01 97       	sbiw	r24, 0x01	; 1
 55c:	90 93 43 01 	sts	0x0143, r25
 560:	80 93 42 01 	sts	0x0142, r24
 564:	80 91 46 01 	lds	r24, 0x0146
 568:	88 23       	and	r24, r24
 56a:	21 f0       	breq	.+8      	; 0x574 <main+0x1e4>
 56c:	88 b3       	in	r24, 0x18	; 24
 56e:	80 27       	eor	r24, r16
 570:	88 bb       	out	0x18, r24	; 24
 572:	01 c0       	rjmp	.+2      	; 0x576 <main+0x1e6>
 574:	c4 9a       	sbi	0x18, 4	; 24
 576:	80 91 34 01 	lds	r24, 0x0134
 57a:	90 91 35 01 	lds	r25, 0x0135
 57e:	00 97       	sbiw	r24, 0x00	; 0
 580:	d9 f4       	brne	.+54     	; 0x5b8 <main+0x228>
 582:	69 dd       	rcall	.-1326   	; 0x56 <readVcc>
 584:	90 93 45 01 	sts	0x0145, r25
 588:	80 93 44 01 	sts	0x0144, r24
 58c:	2b e0       	ldi	r18, 0x0B	; 11
 58e:	88 3b       	cpi	r24, 0xB8	; 184
 590:	92 07       	cpc	r25, r18
 592:	18 f4       	brcc	.+6      	; 0x59a <main+0x20a>
 594:	b0 92 46 01 	sts	0x0146, r11
 598:	02 c0       	rjmp	.+4      	; 0x59e <main+0x20e>
 59a:	10 92 46 01 	sts	0x0146, r1
 59e:	ac 01       	movw	r20, r24
 5a0:	60 e0       	ldi	r22, 0x00	; 0
 5a2:	70 e0       	ldi	r23, 0x00	; 0
 5a4:	80 e0       	ldi	r24, 0x00	; 0
 5a6:	91 e0       	ldi	r25, 0x01	; 1
 5a8:	22 e1       	ldi	r18, 0x12	; 18
 5aa:	31 e0       	ldi	r19, 0x01	; 1
 5ac:	12 d1       	rcall	.+548    	; 0x7d2 <usi_uart_send_u32>
 5ae:	d0 92 35 01 	sts	0x0135, r13
 5b2:	c0 92 34 01 	sts	0x0134, r12
 5b6:	05 c0       	rjmp	.+10     	; 0x5c2 <main+0x232>
 5b8:	01 97       	sbiw	r24, 0x01	; 1
 5ba:	90 93 35 01 	sts	0x0135, r25
 5be:	80 93 34 01 	sts	0x0134, r24
 5c2:	10 92 39 01 	sts	0x0139, r1
 5c6:	db d0       	rcall	.+438    	; 0x77e <usi_uart_done>
 5c8:	88 23       	and	r24, r24
 5ca:	e9 f3       	breq	.-6      	; 0x5c6 <main+0x236>
 5cc:	01 d0       	rcall	.+2      	; 0x5d0 <power_save>
 5ce:	70 cf       	rjmp	.-288    	; 0x4b0 <main+0x120>

000005d0 <power_save>:
 5d0:	85 b7       	in	r24, 0x35	; 53
 5d2:	87 7e       	andi	r24, 0xE7	; 231
 5d4:	80 61       	ori	r24, 0x10	; 16
 5d6:	85 bf       	out	0x35, r24	; 53
 5d8:	85 b7       	in	r24, 0x35	; 53
 5da:	80 62       	ori	r24, 0x20	; 32
 5dc:	85 bf       	out	0x35, r24	; 53
 5de:	80 b5       	in	r24, 0x20	; 32
 5e0:	81 60       	ori	r24, 0x01	; 1
 5e2:	80 bd       	out	0x20, r24	; 32
 5e4:	85 b7       	in	r24, 0x35	; 53
 5e6:	80 62       	ori	r24, 0x20	; 32
 5e8:	85 bf       	out	0x35, r24	; 53
 5ea:	88 95       	sleep
 5ec:	85 b7       	in	r24, 0x35	; 53
 5ee:	8f 7d       	andi	r24, 0xDF	; 223
 5f0:	85 bf       	out	0x35, r24	; 53
 5f2:	85 b7       	in	r24, 0x35	; 53
 5f4:	8f 7d       	andi	r24, 0xDF	; 223
 5f6:	85 bf       	out	0x35, r24	; 53
 5f8:	80 b5       	in	r24, 0x20	; 32
 5fa:	80 7f       	andi	r24, 0xF0	; 240
 5fc:	80 bd       	out	0x20, r24	; 32
 5fe:	08 95       	ret

00000600 <test_info_led>:
 600:	c4 9a       	sbi	0x18, 4	; 24
 602:	80 e1       	ldi	r24, 0x10	; 16
 604:	97 e2       	ldi	r25, 0x27	; 39
 606:	28 ec       	ldi	r18, 0xC8	; 200
 608:	30 e0       	ldi	r19, 0x00	; 0
 60a:	f9 01       	movw	r30, r18
 60c:	31 97       	sbiw	r30, 0x01	; 1
 60e:	f1 f7       	brne	.-4      	; 0x60c <test_info_led+0xc>
 610:	01 97       	sbiw	r24, 0x01	; 1
 612:	d9 f7       	brne	.-10     	; 0x60a <test_info_led+0xa>
 614:	c4 98       	cbi	0x18, 4	; 24
 616:	08 95       	ret

00000618 <test_IR>:
 618:	c0 9a       	sbi	0x18, 0	; 24
 61a:	85 e1       	ldi	r24, 0x15	; 21
 61c:	8a 95       	dec	r24
 61e:	f1 f7       	brne	.-4      	; 0x61c <test_IR+0x4>
 620:	b2 99       	sbic	0x16, 2	; 22
 622:	02 c0       	rjmp	.+4      	; 0x628 <test_IR+0x10>
 624:	81 e0       	ldi	r24, 0x01	; 1
 626:	01 c0       	rjmp	.+2      	; 0x62a <test_IR+0x12>
 628:	8b e0       	ldi	r24, 0x0B	; 11
 62a:	c0 98       	cbi	0x18, 0	; 24
 62c:	08 95       	ret

0000062e <test_sram>:
 62e:	df 93       	push	r29
 630:	cf 93       	push	r28
 632:	00 d0       	rcall	.+0      	; 0x634 <test_sram+0x6>
 634:	cd b7       	in	r28, 0x3d	; 61
 636:	de b7       	in	r29, 0x3e	; 62
 638:	e0 e6       	ldi	r30, 0x60	; 96
 63a:	f0 e0       	ldi	r31, 0x00	; 0
 63c:	35 e5       	ldi	r19, 0x55	; 85
 63e:	2a ea       	ldi	r18, 0xAA	; 170
 640:	80 81       	ld	r24, Z
 642:	8a 83       	std	Y+2, r24	; 0x02
 644:	30 83       	st	Z, r19
 646:	80 81       	ld	r24, Z
 648:	89 83       	std	Y+1, r24	; 0x01
 64a:	89 81       	ldd	r24, Y+1	; 0x01
 64c:	85 35       	cpi	r24, 0x55	; 85
 64e:	b1 f4       	brne	.+44     	; 0x67c <test_sram+0x4e>
 650:	20 83       	st	Z, r18
 652:	80 81       	ld	r24, Z
 654:	89 83       	std	Y+1, r24	; 0x01
 656:	89 81       	ldd	r24, Y+1	; 0x01
 658:	8a 3a       	cpi	r24, 0xAA	; 170
 65a:	81 f4       	brne	.+32     	; 0x67c <test_sram+0x4e>
 65c:	8e 2f       	mov	r24, r30
 65e:	80 95       	com	r24
 660:	80 83       	st	Z, r24
 662:	90 81       	ld	r25, Z
 664:	99 83       	std	Y+1, r25	; 0x01
 666:	99 81       	ldd	r25, Y+1	; 0x01
 668:	98 17       	cp	r25, r24
 66a:	41 f4       	brne	.+16     	; 0x67c <test_sram+0x4e>
 66c:	8a 81       	ldd	r24, Y+2	; 0x02
 66e:	81 93       	st	Z+, r24
 670:	82 e0       	ldi	r24, 0x02	; 2
 672:	e0 36       	cpi	r30, 0x60	; 96
 674:	f8 07       	cpc	r31, r24
 676:	21 f7       	brne	.-56     	; 0x640 <test_sram+0x12>
 678:	81 e0       	ldi	r24, 0x01	; 1
 67a:	01 c0       	rjmp	.+2      	; 0x67e <test_sram+0x50>
 67c:	8d e0       	ldi	r24, 0x0D	; 13
 67e:	0f 90       	pop	r0
 680:	0f 90       	pop	r0
 682:	cf 91       	pop	r28
 684:	df 91       	pop	r29
 686:	08 95       	ret

00000688 <test_flash>:
 688:	cf 93       	push	r28
 68a:	df 93       	push	r29
 68c:	c0 e0       	ldi	r28, 0x00	; 0
 68e:	d0 e0       	ldi	r29, 0x00	; 0
 690:	e0 e0       	ldi	r30, 0x00	; 0
 692:	f0 e0       	ldi	r31, 0x00	; 0
 694:	84 91       	lpm	r24, Z+
 696:	c8 27       	eor	r28, r24
 698:	0c 2e       	mov	r0, r28
 69a:	c2 95       	swap	r28
 69c:	c0 7f       	andi	r28, 0xF0	; 240
 69e:	c0 25       	eor	r28, r0
 6a0:	0d 2e       	mov	r0, r29
 6a2:	dc 2f       	mov	r29, r28
 6a4:	c2 95       	swap	r28
 6a6:	cf 70       	andi	r28, 0x0F	; 15
 6a8:	0c 26       	eor	r0, r28
 6aa:	c6 95       	lsr	r28
 6ac:	dc 27       	eor	r29, r28
 6ae:	cd 27       	eor	r28, r29
 6b0:	cc 0f       	add	r28, r28
 6b2:	cc 0f       	add	r28, r28
 6b4:	cc 0f       	add	r28, r28
 6b6:	c0 25       	eor	r28, r0
 6b8:	31 96       	adiw	r30, 0x01	; 1
 6ba:	80 e2       	ldi	r24, 0x20	; 32
 6bc:	e0 30       	cpi	r30, 0x00	; 0
 6be:	f8 07       	cpc	r31, r24
 6c0:	49 f7       	brne	.-46     	; 0x694 <test_flash+0xc>
 6c2:	0a de       	rcall	.-1004   	; 0x2d8 <read_crc>
 6c4:	8c 17       	cp	r24, r28
 6c6:	9d 07       	cpc	r25, r29
 6c8:	11 f0       	breq	.+4      	; 0x6ce <test_flash+0x46>
 6ca:	8c e0       	ldi	r24, 0x0C	; 12
 6cc:	01 c0       	rjmp	.+2      	; 0x6d0 <test_flash+0x48>
 6ce:	81 e0       	ldi	r24, 0x01	; 1
 6d0:	df 91       	pop	r29
 6d2:	cf 91       	pop	r28
 6d4:	08 95       	ret

000006d6 <test_battery>:
 6d6:	bf dc       	rcall	.-1666   	; 0x56 <readVcc>
 6d8:	20 e0       	ldi	r18, 0x00	; 0
 6da:	88 5b       	subi	r24, 0xB8	; 184
 6dc:	9b 40       	sbci	r25, 0x0B	; 11
 6de:	08 f0       	brcs	.+2      	; 0x6e2 <test_battery+0xc>
 6e0:	21 e0       	ldi	r18, 0x01	; 1
 6e2:	82 2f       	mov	r24, r18
 6e4:	08 95       	ret

000006e6 <system_self_test>:
 6e6:	f7 df       	rcall	.-18     	; 0x6d6 <test_battery>
 6e8:	81 30       	cpi	r24, 0x01	; 1
 6ea:	29 f4       	brne	.+10     	; 0x6f6 <system_self_test+0x10>
 6ec:	89 df       	rcall	.-238    	; 0x600 <test_info_led>
 6ee:	94 df       	rcall	.-216    	; 0x618 <test_IR>
 6f0:	81 30       	cpi	r24, 0x01	; 1
 6f2:	09 f4       	brne	.+2      	; 0x6f6 <system_self_test+0x10>
 6f4:	9c df       	rcall	.-200    	; 0x62e <test_sram>
 6f6:	08 95       	ret

000006f8 <timer_start>:
 6f8:	14 be       	out	0x34, r1	; 52
 6fa:	88 e1       	ldi	r24, 0x18	; 24
 6fc:	81 bd       	out	0x21, r24	; 33
 6fe:	11 bc       	out	0x21, r1	; 33
 700:	83 e4       	ldi	r24, 0x43	; 67
 702:	81 bd       	out	0x21, r24	; 33
 704:	08 95       	ret

00000706 <usi_uart_send_byte>:
 706:	28 2f       	mov	r18, r24
 708:	80 91 18 01 	lds	r24, 0x0118
 70c:	88 23       	and	r24, r24
 70e:	e1 f7       	brne	.-8      	; 0x708 <usi_uart_send_byte+0x2>
 710:	81 e0       	ldi	r24, 0x01	; 1
 712:	80 93 18 01 	sts	0x0118, r24
 716:	92 2f       	mov	r25, r18
 718:	99 0f       	add	r25, r25
 71a:	9a 7a       	andi	r25, 0xAA	; 170
 71c:	26 95       	lsr	r18
 71e:	25 75       	andi	r18, 0x55	; 85
 720:	92 2b       	or	r25, r18
 722:	89 2f       	mov	r24, r25
 724:	88 0f       	add	r24, r24
 726:	88 0f       	add	r24, r24
 728:	8c 7c       	andi	r24, 0xCC	; 204
 72a:	96 95       	lsr	r25
 72c:	96 95       	lsr	r25
 72e:	93 73       	andi	r25, 0x33	; 51
 730:	89 2b       	or	r24, r25
 732:	98 2f       	mov	r25, r24
 734:	92 95       	swap	r25
 736:	9f 70       	andi	r25, 0x0F	; 15
 738:	82 95       	swap	r24
 73a:	80 7f       	andi	r24, 0xF0	; 240
 73c:	98 2b       	or	r25, r24
 73e:	90 93 19 01 	sts	0x0119, r25
 742:	82 e0       	ldi	r24, 0x02	; 2
 744:	8a bd       	out	0x2a, r24	; 42
 746:	83 bf       	out	0x33, r24	; 51
 748:	8c b5       	in	r24, 0x2c	; 44
 74a:	81 60       	ori	r24, 0x01	; 1
 74c:	8c bd       	out	0x2c, r24	; 44
 74e:	88 e6       	ldi	r24, 0x68	; 104
 750:	89 bd       	out	0x29, r24	; 41
 752:	12 be       	out	0x32, r1	; 50
 754:	80 91 19 01 	lds	r24, 0x0119
 758:	86 95       	lsr	r24
 75a:	8f b9       	out	0x0f, r24	; 15
 75c:	84 e5       	ldi	r24, 0x54	; 84
 75e:	8d b9       	out	0x0d, r24	; 13
 760:	b9 9a       	sbi	0x17, 1	; 23
 762:	88 e4       	ldi	r24, 0x48	; 72
 764:	8e b9       	out	0x0e, r24	; 14
 766:	08 95       	ret

00000768 <usi_uart_send>:
 768:	cf 93       	push	r28
 76a:	df 93       	push	r29
 76c:	ec 01       	movw	r28, r24
 76e:	01 c0       	rjmp	.+2      	; 0x772 <usi_uart_send+0xa>
 770:	ca df       	rcall	.-108    	; 0x706 <usi_uart_send_byte>
 772:	89 91       	ld	r24, Y+
 774:	88 23       	and	r24, r24
 776:	e1 f7       	brne	.-8      	; 0x770 <usi_uart_send+0x8>
 778:	df 91       	pop	r29
 77a:	cf 91       	pop	r28
 77c:	08 95       	ret

0000077e <usi_uart_done>:
 77e:	80 91 18 01 	lds	r24, 0x0118
 782:	90 e0       	ldi	r25, 0x00	; 0
 784:	88 23       	and	r24, r24
 786:	09 f4       	brne	.+2      	; 0x78a <usi_uart_done+0xc>
 788:	91 e0       	ldi	r25, 0x01	; 1
 78a:	89 2f       	mov	r24, r25
 78c:	08 95       	ret

0000078e <__vector_14>:
 78e:	1f 92       	push	r1
 790:	0f 92       	push	r0
 792:	0f b6       	in	r0, 0x3f	; 63
 794:	0f 92       	push	r0
 796:	11 24       	eor	r1, r1
 798:	8f 93       	push	r24
 79a:	80 91 18 01 	lds	r24, 0x0118
 79e:	81 30       	cpi	r24, 0x01	; 1
 7a0:	69 f4       	brne	.+26     	; 0x7bc <__vector_14+0x2e>
 7a2:	82 e0       	ldi	r24, 0x02	; 2
 7a4:	80 93 18 01 	sts	0x0118, r24
 7a8:	80 91 19 01 	lds	r24, 0x0119
 7ac:	87 95       	ror	r24
 7ae:	88 27       	eor	r24, r24
 7b0:	87 95       	ror	r24
 7b2:	8f 67       	ori	r24, 0x7F	; 127
 7b4:	8f b9       	out	0x0f, r24	; 15
 7b6:	8e e4       	ldi	r24, 0x4E	; 78
 7b8:	8e b9       	out	0x0e, r24	; 14
 7ba:	05 c0       	rjmp	.+10     	; 0x7c6 <__vector_14+0x38>
 7bc:	c1 9a       	sbi	0x18, 1	; 24
 7be:	1d b8       	out	0x0d, r1	; 13
 7c0:	76 9a       	sbi	0x0e, 6	; 14
 7c2:	10 92 18 01 	sts	0x0118, r1
 7c6:	8f 91       	pop	r24
 7c8:	0f 90       	pop	r0
 7ca:	0f be       	out	0x3f, r0	; 63
 7cc:	0f 90       	pop	r0
 7ce:	1f 90       	pop	r1
 7d0:	18 95       	reti

000007d2 <usi_uart_send_u32>:
 7d2:	cf 92       	push	r12
 7d4:	df 92       	push	r13
 7d6:	ef 92       	push	r14
 7d8:	ff 92       	push	r15
 7da:	0f 93       	push	r16
 7dc:	1f 93       	push	r17
 7de:	df 93       	push	r29
 7e0:	cf 93       	push	r28
 7e2:	cd b7       	in	r28, 0x3d	; 61
 7e4:	de b7       	in	r29, 0x3e	; 62
 7e6:	2b 97       	sbiw	r28, 0x0b	; 11
 7e8:	0f b6       	in	r0, 0x3f	; 63
 7ea:	f8 94       	cli
 7ec:	de bf       	out	0x3e, r29	; 62
 7ee:	0f be       	out	0x3f, r0	; 63
 7f0:	cd bf       	out	0x3d, r28	; 61
 7f2:	7c 01       	movw	r14, r24
 7f4:	db 01       	movw	r26, r22
 7f6:	ca 01       	movw	r24, r20
 7f8:	69 01       	movw	r12, r18
 7fa:	8e 01       	movw	r16, r28
 7fc:	0f 5f       	subi	r16, 0xFF	; 255
 7fe:	1f 4f       	sbci	r17, 0xFF	; 255
 800:	b8 01       	movw	r22, r16
 802:	4a e0       	ldi	r20, 0x0A	; 10
 804:	50 e0       	ldi	r21, 0x00	; 0
 806:	64 d0       	rcall	.+200    	; 0x8d0 <itoa>
 808:	c7 01       	movw	r24, r14
 80a:	ae df       	rcall	.-164    	; 0x768 <usi_uart_send>
 80c:	c8 01       	movw	r24, r16
 80e:	ac df       	rcall	.-168    	; 0x768 <usi_uart_send>
 810:	c6 01       	movw	r24, r12
 812:	aa df       	rcall	.-172    	; 0x768 <usi_uart_send>
 814:	2b 96       	adiw	r28, 0x0b	; 11
 816:	0f b6       	in	r0, 0x3f	; 63
 818:	f8 94       	cli
 81a:	de bf       	out	0x3e, r29	; 62
 81c:	0f be       	out	0x3f, r0	; 63
 81e:	cd bf       	out	0x3d, r28	; 61
 820:	cf 91       	pop	r28
 822:	df 91       	pop	r29
 824:	1f 91       	pop	r17
 826:	0f 91       	pop	r16
 828:	ff 90       	pop	r15
 82a:	ef 90       	pop	r14
 82c:	df 90       	pop	r13
 82e:	cf 90       	pop	r12
 830:	08 95       	ret

00000832 <__mulhi3>:
 832:	55 27       	eor	r21, r21
 834:	00 24       	eor	r0, r0

00000836 <__mulhi3_loop>:
 836:	80 ff       	sbrs	r24, 0
 838:	02 c0       	rjmp	.+4      	; 0x83e <__mulhi3_skip1>
 83a:	06 0e       	add	r0, r22
 83c:	57 1f       	adc	r21, r23

0000083e <__mulhi3_skip1>:
 83e:	66 0f       	add	r22, r22
 840:	77 1f       	adc	r23, r23
 842:	61 15       	cp	r22, r1
 844:	71 05       	cpc	r23, r1
 846:	21 f0       	breq	.+8      	; 0x850 <__mulhi3_exit>
 848:	96 95       	lsr	r25
 84a:	87 95       	ror	r24
 84c:	00 97       	sbiw	r24, 0x00	; 0
 84e:	99 f7       	brne	.-26     	; 0x836 <__mulhi3_loop>

00000850 <__mulhi3_exit>:
 850:	95 2f       	mov	r25, r21
 852:	80 2d       	mov	r24, r0
 854:	08 95       	ret

00000856 <__divmodsi4>:
 856:	97 fb       	bst	r25, 7
 858:	09 2e       	mov	r0, r25
 85a:	05 26       	eor	r0, r21
 85c:	0e d0       	rcall	.+28     	; 0x87a <__divmodsi4_neg1>
 85e:	57 fd       	sbrc	r21, 7
 860:	04 d0       	rcall	.+8      	; 0x86a <__divmodsi4_neg2>
 862:	14 d0       	rcall	.+40     	; 0x88c <__udivmodsi4>
 864:	0a d0       	rcall	.+20     	; 0x87a <__divmodsi4_neg1>
 866:	00 1c       	adc	r0, r0
 868:	38 f4       	brcc	.+14     	; 0x878 <__divmodsi4_exit>

0000086a <__divmodsi4_neg2>:
 86a:	50 95       	com	r21
 86c:	40 95       	com	r20
 86e:	30 95       	com	r19
 870:	21 95       	neg	r18
 872:	3f 4f       	sbci	r19, 0xFF	; 255
 874:	4f 4f       	sbci	r20, 0xFF	; 255
 876:	5f 4f       	sbci	r21, 0xFF	; 255

00000878 <__divmodsi4_exit>:
 878:	08 95       	ret

0000087a <__divmodsi4_neg1>:
 87a:	f6 f7       	brtc	.-4      	; 0x878 <__divmodsi4_exit>
 87c:	90 95       	com	r25
 87e:	80 95       	com	r24
 880:	70 95       	com	r23
 882:	61 95       	neg	r22
 884:	7f 4f       	sbci	r23, 0xFF	; 255
 886:	8f 4f       	sbci	r24, 0xFF	; 255
 888:	9f 4f       	sbci	r25, 0xFF	; 255
 88a:	08 95       	ret

0000088c <__udivmodsi4>:
 88c:	a1 e2       	ldi	r26, 0x21	; 33
 88e:	1a 2e       	mov	r1, r26
 890:	aa 1b       	sub	r26, r26
 892:	bb 1b       	sub	r27, r27
 894:	fd 01       	movw	r30, r26
 896:	0d c0       	rjmp	.+26     	; 0x8b2 <__udivmodsi4_ep>

00000898 <__udivmodsi4_loop>:
 898:	aa 1f       	adc	r26, r26
 89a:	bb 1f       	adc	r27, r27
 89c:	ee 1f       	adc	r30, r30
 89e:	ff 1f       	adc	r31, r31
 8a0:	a2 17       	cp	r26, r18
 8a2:	b3 07       	cpc	r27, r19
 8a4:	e4 07       	cpc	r30, r20
 8a6:	f5 07       	cpc	r31, r21
 8a8:	20 f0       	brcs	.+8      	; 0x8b2 <__udivmodsi4_ep>
 8aa:	a2 1b       	sub	r26, r18
 8ac:	b3 0b       	sbc	r27, r19
 8ae:	e4 0b       	sbc	r30, r20
 8b0:	f5 0b       	sbc	r31, r21

000008b2 <__udivmodsi4_ep>:
 8b2:	66 1f       	adc	r22, r22
 8b4:	77 1f       	adc	r23, r23
 8b6:	88 1f       	adc	r24, r24
 8b8:	99 1f       	adc	r25, r25
 8ba:	1a 94       	dec	r1
 8bc:	69 f7       	brne	.-38     	; 0x898 <__udivmodsi4_loop>
 8be:	60 95       	com	r22
 8c0:	70 95       	com	r23
 8c2:	80 95       	com	r24
 8c4:	90 95       	com	r25
 8c6:	9b 01       	movw	r18, r22
 8c8:	ac 01       	movw	r20, r24
 8ca:	bd 01       	movw	r22, r26
 8cc:	cf 01       	movw	r24, r30
 8ce:	08 95       	ret

000008d0 <itoa>:
 8d0:	fb 01       	movw	r30, r22
 8d2:	9f 01       	movw	r18, r30
 8d4:	e8 94       	clt
 8d6:	42 30       	cpi	r20, 0x02	; 2
 8d8:	bc f0       	brlt	.+46     	; 0x908 <itoa+0x38>
 8da:	45 32       	cpi	r20, 0x25	; 37
 8dc:	ac f4       	brge	.+42     	; 0x908 <itoa+0x38>
 8de:	4a 30       	cpi	r20, 0x0A	; 10
 8e0:	29 f4       	brne	.+10     	; 0x8ec <itoa+0x1c>
 8e2:	97 fb       	bst	r25, 7
 8e4:	1e f4       	brtc	.+6      	; 0x8ec <itoa+0x1c>
 8e6:	90 95       	com	r25
 8e8:	81 95       	neg	r24
 8ea:	9f 4f       	sbci	r25, 0xFF	; 255
 8ec:	64 2f       	mov	r22, r20
 8ee:	77 27       	eor	r23, r23
 8f0:	57 d0       	rcall	.+174    	; 0x9a0 <__udivmodhi4>
 8f2:	80 5d       	subi	r24, 0xD0	; 208
 8f4:	8a 33       	cpi	r24, 0x3A	; 58
 8f6:	0c f0       	brlt	.+2      	; 0x8fa <itoa+0x2a>
 8f8:	89 5d       	subi	r24, 0xD9	; 217
 8fa:	81 93       	st	Z+, r24
 8fc:	cb 01       	movw	r24, r22
 8fe:	00 97       	sbiw	r24, 0x00	; 0
 900:	a9 f7       	brne	.-22     	; 0x8ec <itoa+0x1c>
 902:	16 f4       	brtc	.+4      	; 0x908 <itoa+0x38>
 904:	5d e2       	ldi	r21, 0x2D	; 45
 906:	51 93       	st	Z+, r21
 908:	10 82       	st	Z, r1
 90a:	c9 01       	movw	r24, r18
 90c:	39 c0       	rjmp	.+114    	; 0x980 <strrev>

0000090e <__eerd_block_tn85>:
 90e:	dc 01       	movw	r26, r24
 910:	cb 01       	movw	r24, r22

00000912 <__eerd_blraw_tn85>:
 912:	fc 01       	movw	r30, r24
 914:	e1 99       	sbic	0x1c, 1	; 28
 916:	fe cf       	rjmp	.-4      	; 0x914 <__eerd_blraw_tn85+0x2>
 918:	06 c0       	rjmp	.+12     	; 0x926 <__eerd_blraw_tn85+0x14>
 91a:	ff bb       	out	0x1f, r31	; 31
 91c:	ee bb       	out	0x1e, r30	; 30
 91e:	e0 9a       	sbi	0x1c, 0	; 28
 920:	31 96       	adiw	r30, 0x01	; 1
 922:	0d b2       	in	r0, 0x1d	; 29
 924:	0d 92       	st	X+, r0
 926:	41 50       	subi	r20, 0x01	; 1
 928:	50 40       	sbci	r21, 0x00	; 0
 92a:	b8 f7       	brcc	.-18     	; 0x91a <__eerd_blraw_tn85+0x8>
 92c:	08 95       	ret

0000092e <__eerd_byte_tn85>:
 92e:	e1 99       	sbic	0x1c, 1	; 28
 930:	fe cf       	rjmp	.-4      	; 0x92e <__eerd_byte_tn85>
 932:	9f bb       	out	0x1f, r25	; 31
 934:	8e bb       	out	0x1e, r24	; 30
 936:	e0 9a       	sbi	0x1c, 0	; 28
 938:	99 27       	eor	r25, r25
 93a:	8d b3       	in	r24, 0x1d	; 29
 93c:	08 95       	ret

0000093e <__eerd_dword_tn85>:
 93e:	a6 e1       	ldi	r26, 0x16	; 22
 940:	b0 e0       	ldi	r27, 0x00	; 0
 942:	44 e0       	ldi	r20, 0x04	; 4
 944:	50 e0       	ldi	r21, 0x00	; 0
 946:	e5 cf       	rjmp	.-54     	; 0x912 <__eerd_blraw_tn85>

00000948 <__eerd_word_tn85>:
 948:	a8 e1       	ldi	r26, 0x18	; 24
 94a:	b0 e0       	ldi	r27, 0x00	; 0
 94c:	42 e0       	ldi	r20, 0x02	; 2
 94e:	50 e0       	ldi	r21, 0x00	; 0
 950:	e0 cf       	rjmp	.-64     	; 0x912 <__eerd_blraw_tn85>

00000952 <__eewr_block_tn85>:
 952:	dc 01       	movw	r26, r24
 954:	cb 01       	movw	r24, r22
 956:	02 c0       	rjmp	.+4      	; 0x95c <__eewr_block_tn85+0xa>
 958:	2d 91       	ld	r18, X+
 95a:	05 d0       	rcall	.+10     	; 0x966 <__eewr_r18_tn85>
 95c:	41 50       	subi	r20, 0x01	; 1
 95e:	50 40       	sbci	r21, 0x00	; 0
 960:	d8 f7       	brcc	.-10     	; 0x958 <__eewr_block_tn85+0x6>
 962:	08 95       	ret

00000964 <__eewr_byte_tn85>:
 964:	26 2f       	mov	r18, r22

00000966 <__eewr_r18_tn85>:
 966:	e1 99       	sbic	0x1c, 1	; 28
 968:	fe cf       	rjmp	.-4      	; 0x966 <__eewr_r18_tn85>
 96a:	1c ba       	out	0x1c, r1	; 28
 96c:	9f bb       	out	0x1f, r25	; 31
 96e:	8e bb       	out	0x1e, r24	; 30
 970:	2d bb       	out	0x1d, r18	; 29
 972:	0f b6       	in	r0, 0x3f	; 63
 974:	f8 94       	cli
 976:	e2 9a       	sbi	0x1c, 2	; 28
 978:	e1 9a       	sbi	0x1c, 1	; 28
 97a:	0f be       	out	0x3f, r0	; 63
 97c:	01 96       	adiw	r24, 0x01	; 1
 97e:	08 95       	ret

00000980 <strrev>:
 980:	dc 01       	movw	r26, r24
 982:	fc 01       	movw	r30, r24
 984:	67 2f       	mov	r22, r23
 986:	71 91       	ld	r23, Z+
 988:	77 23       	and	r23, r23
 98a:	e1 f7       	brne	.-8      	; 0x984 <strrev+0x4>
 98c:	32 97       	sbiw	r30, 0x02	; 2
 98e:	04 c0       	rjmp	.+8      	; 0x998 <strrev+0x18>
 990:	7c 91       	ld	r23, X
 992:	6d 93       	st	X+, r22
 994:	70 83       	st	Z, r23
 996:	62 91       	ld	r22, -Z
 998:	ae 17       	cp	r26, r30
 99a:	bf 07       	cpc	r27, r31
 99c:	c8 f3       	brcs	.-14     	; 0x990 <strrev+0x10>
 99e:	08 95       	ret

000009a0 <__udivmodhi4>:
 9a0:	aa 1b       	sub	r26, r26
 9a2:	bb 1b       	sub	r27, r27
 9a4:	51 e1       	ldi	r21, 0x11	; 17
 9a6:	07 c0       	rjmp	.+14     	; 0x9b6 <__udivmodhi4_ep>

000009a8 <__udivmodhi4_loop>:
 9a8:	aa 1f       	adc	r26, r26
 9aa:	bb 1f       	adc	r27, r27
 9ac:	a6 17       	cp	r26, r22
 9ae:	b7 07       	cpc	r27, r23
 9b0:	10 f0       	brcs	.+4      	; 0x9b6 <__udivmodhi4_ep>
 9b2:	a6 1b       	sub	r26, r22
 9b4:	b7 0b       	sbc	r27, r23

000009b6 <__udivmodhi4_ep>:
 9b6:	88 1f       	adc	r24, r24
 9b8:	99 1f       	adc	r25, r25
 9ba:	5a 95       	dec	r21
 9bc:	a9 f7       	brne	.-22     	; 0x9a8 <__udivmodhi4_loop>
 9be:	80 95       	com	r24
 9c0:	90 95       	com	r25
 9c2:	bc 01       	movw	r22, r24
 9c4:	cd 01       	movw	r24, r26
 9c6:	08 95       	ret

000009c8 <_exit>:
 9c8:	f8 94       	cli

000009ca <__stop_program>:
 9ca:	ff cf       	rjmp	.-2      	; 0x9ca <__stop_program>
